target datalayout = "e-m:e-p270:32:32-p271:32:32-p272:64:64-i64:64-i128:128-f80:128-n8:16:32:64-S128"
target triple = "x86_64-pc-linux-gnu"

%struct.AVFormatContext = type { ptr, ptr, ptr, ptr, ptr, i32, i32, ptr, i32, ptr, i32, ptr, ptr, i64, i64, i64, i32, i32, i32, i64, i64, ptr, i32, i32, ptr, i32, i32, i32, i32, ptr, i64, i32, i32, %struct.AVIOInterruptCB, i32, i32, i32, i32, i64, i32, i32, i32, i32, i32, i32, i32, i32, i32, i32, i32, i32, i64, i32, i32, i32, i32, i32, ptr, ptr, ptr, ptr, i32, ptr, ptr, ptr, ptr, i32, ptr, ptr, i64, ptr, ptr, ptr, i64 }
%struct.AVIOInterruptCB = type { ptr, ptr }
%struct.AVStream = type { ptr, i32, i32, ptr, ptr, %struct.AVRational, i64, i64, i64, i32, i32, %struct.AVRational, ptr, %struct.AVRational, %struct.AVPacket, i32, %struct.AVRational, i32 }
%struct.AVPacket = type { ptr, i64, i64, ptr, i32, i32, i32, ptr, i32, i64, i64, ptr, ptr, %struct.AVRational }
%struct.AVRational = type { i32, i32 }
%struct.AVCodecParameters = type { i32, i32, i32, ptr, i32, ptr, i32, i32, i64, i32, i32, i32, i32, i32, i32, %struct.AVRational, %struct.AVRational, i32, i32, i32, i32, i32, i32, i32, %struct.AVChannelLayout, i32, i32, i32, i32, i32, i32 }
%struct.AVChannelLayout = type { i32, i32, %union.anon, ptr }
%union.anon = type { i64 }

; Function Attrs: nounwind uwtable
define internal i32 @aix_read_header(ptr noundef %0) #0 {
  %2 = alloca i32, align 4
  %3 = alloca ptr, align 8
  %4 = alloca i32, align 4
  %5 = alloca i32, align 4
  %6 = alloca i32, align 4
  %7 = alloca i32, align 4
  %8 = alloca i32, align 4
  %9 = alloca i32, align 4
  %10 = alloca i32, align 4
  %11 = alloca i32, align 4
  %12 = alloca i32, align 4
  %13 = alloca ptr, align 8
  store ptr %0, ptr %3, align 8, !tbaa !14
  call void @llvm.lifetime.start.p0(i64 4, ptr %4) #6
  call void @llvm.lifetime.start.p0(i64 4, ptr %5) #6
  call void @llvm.lifetime.start.p0(i64 4, ptr %6) #6
  call void @llvm.lifetime.start.p0(i64 4, ptr %7) #6
  call void @llvm.lifetime.start.p0(i64 4, ptr %8) #6
  store i32 32, ptr %8, align 4, !tbaa !16
  call void @llvm.lifetime.start.p0(i64 4, ptr %9) #6
  store i32 16, ptr %9, align 4, !tbaa !16
  call void @llvm.lifetime.start.p0(i64 4, ptr %10) #6
  call void @llvm.lifetime.start.p0(i64 4, ptr %11) #6
  %14 = load ptr, ptr %3, align 8, !tbaa !14
  %15 = getelementptr inbounds nuw %struct.AVFormatContext, ptr %14, i32 0, i32 4
  %16 = load ptr, ptr %15, align 8, !tbaa !17
  %17 = call i64 @avio_skip(ptr noundef %16, i64 noundef 4)
  %18 = load ptr, ptr %3, align 8, !tbaa !14
  %19 = getelementptr inbounds nuw %struct.AVFormatContext, ptr %18, i32 0, i32 4
  %20 = load ptr, ptr %19, align 8, !tbaa !17
  %21 = call i32 @avio_rb32(ptr noundef %20)
  %22 = add i32 %21, 8
  store i32 %22, ptr %5, align 4, !tbaa !16
  %23 = load ptr, ptr %3, align 8, !tbaa !14
  %24 = getelementptr inbounds nuw %struct.AVFormatContext, ptr %23, i32 0, i32 4
  %25 = load ptr, ptr %24, align 8, !tbaa !17
  %26 = call i64 @avio_skip(ptr noundef %25, i64 noundef 16)
  %27 = load ptr, ptr %3, align 8, !tbaa !14
  %28 = getelementptr inbounds nuw %struct.AVFormatContext, ptr %27, i32 0, i32 4
  %29 = load ptr, ptr %28, align 8, !tbaa !17
  %30 = call i32 @avio_rb16(ptr noundef %29)
  store i32 %30, ptr %6, align 4, !tbaa !16
  %31 = load i32, ptr %6, align 4, !tbaa !16
  %32 = icmp eq i32 %31, 0
  br i1 %32, label %33, label %34

33:                                               ; preds = %1
  store i32 -1094995529, ptr %2, align 4
  store i32 1, ptr %12, align 4
  br label %167

34:                                               ; preds = %1
  %35 = load i32, ptr %8, align 4, !tbaa !16
  %36 = load i32, ptr %9, align 4, !tbaa !16
  %37 = load i32, ptr %6, align 4, !tbaa !16
  %38 = mul i32 %36, %37
  %39 = add i32 %35, %38
  %40 = add i32 %39, 16
  store i32 %40, ptr %7, align 4, !tbaa !16
  %41 = load i32, ptr %7, align 4, !tbaa !16
  %42 = load i32, ptr %5, align 4, !tbaa !16
  %43 = icmp uge i32 %41, %42
  br i1 %43, label %44, label %45

44:                                               ; preds = %34
  store i32 -1094995529, ptr %2, align 4
  store i32 1, ptr %12, align 4
  br label %167

45:                                               ; preds = %34
  %46 = load ptr, ptr %3, align 8, !tbaa !14
  %47 = getelementptr inbounds nuw %struct.AVFormatContext, ptr %46, i32 0, i32 4
  %48 = load ptr, ptr %47, align 8, !tbaa !17
  %49 = load i32, ptr %7, align 4, !tbaa !16
  %50 = zext i32 %49 to i64
  %51 = call i64 @avio_seek(ptr noundef %48, i64 noundef %50, i32 noundef 0)
  %52 = load ptr, ptr %3, align 8, !tbaa !14
  %53 = getelementptr inbounds nuw %struct.AVFormatContext, ptr %52, i32 0, i32 4
  %54 = load ptr, ptr %53, align 8, !tbaa !17
  %55 = call i32 @avio_r8(ptr noundef %54)
  store i32 %55, ptr %4, align 4, !tbaa !16
  %56 = load i32, ptr %4, align 4, !tbaa !16
  %57 = icmp eq i32 %56, 0
  br i1 %57, label %58, label %59

58:                                               ; preds = %45
  store i32 -1094995529, ptr %2, align 4
  store i32 1, ptr %12, align 4
  br label %167

59:                                               ; preds = %45
  %60 = load ptr, ptr %3, align 8, !tbaa !14
  %61 = getelementptr inbounds nuw %struct.AVFormatContext, ptr %60, i32 0, i32 4
  %62 = load ptr, ptr %61, align 8, !tbaa !17
  %63 = call i64 @avio_skip(ptr noundef %62, i64 noundef 7)
  store i32 0, ptr %11, align 4, !tbaa !16
  br label %64

64:                                               ; preds = %113, %59
  %65 = load i32, ptr %11, align 4, !tbaa !16
  %66 = load i32, ptr %4, align 4, !tbaa !16
  %67 = icmp ult i32 %65, %66
  br i1 %67, label %68, label %116

68:                                               ; preds = %64
  call void @llvm.lifetime.start.p0(i64 8, ptr %13) #6
  %69 = load ptr, ptr %3, align 8, !tbaa !14
  %70 = call ptr @avformat_new_stream(ptr noundef %69, ptr noundef null)
  store ptr %70, ptr %13, align 8, !tbaa !32
  %71 = load ptr, ptr %13, align 8, !tbaa !32
  %72 = icmp ne ptr %71, null
  br i1 %72, label %74, label %73

73:                                               ; preds = %68
  store i32 -12, ptr %2, align 4
  store i32 1, ptr %12, align 4
  br label %110

74:                                               ; preds = %68
  %75 = load ptr, ptr %13, align 8, !tbaa !32
  %76 = getelementptr inbounds nuw %struct.AVStream, ptr %75, i32 0, i32 3
  %77 = load ptr, ptr %76, align 8, !tbaa !34
  %78 = getelementptr inbounds nuw %struct.AVCodecParameters, ptr %77, i32 0, i32 0
  store i32 1, ptr %78, align 8, !tbaa !41
  %79 = load ptr, ptr %13, align 8, !tbaa !32
  %80 = getelementptr inbounds nuw %struct.AVStream, ptr %79, i32 0, i32 3
  %81 = load ptr, ptr %80, align 8, !tbaa !34
  %82 = getelementptr inbounds nuw %struct.AVCodecParameters, ptr %81, i32 0, i32 1
  store i32 69641, ptr %82, align 4, !tbaa !44
  %83 = load ptr, ptr %3, align 8, !tbaa !14
  %84 = getelementptr inbounds nuw %struct.AVFormatContext, ptr %83, i32 0, i32 4
  %85 = load ptr, ptr %84, align 8, !tbaa !17
  %86 = call i32 @avio_rb32(ptr noundef %85)
  %87 = load ptr, ptr %13, align 8, !tbaa !32
  %88 = getelementptr inbounds nuw %struct.AVStream, ptr %87, i32 0, i32 3
  %89 = load ptr, ptr %88, align 8, !tbaa !34
  %90 = getelementptr inbounds nuw %struct.AVCodecParameters, ptr %89, i32 0, i32 25
  store i32 %86, ptr %90, align 8, !tbaa !45
  %91 = load ptr, ptr %3, align 8, !tbaa !14
  %92 = getelementptr inbounds nuw %struct.AVFormatContext, ptr %91, i32 0, i32 4
  %93 = load ptr, ptr %92, align 8, !tbaa !17
  %94 = call i32 @avio_r8(ptr noundef %93)
  %95 = load ptr, ptr %13, align 8, !tbaa !32
  %96 = getelementptr inbounds nuw %struct.AVStream, ptr %95, i32 0, i32 3
  %97 = load ptr, ptr %96, align 8, !tbaa !34
  %98 = getelementptr inbounds nuw %struct.AVCodecParameters, ptr %97, i32 0, i32 24
  %99 = getelementptr inbounds nuw %struct.AVChannelLayout, ptr %98, i32 0, i32 1
  store i32 %94, ptr %99, align 4, !tbaa !46
  %100 = load ptr, ptr %13, align 8, !tbaa !32
  %101 = load ptr, ptr %13, align 8, !tbaa !32
  %102 = getelementptr inbounds nuw %struct.AVStream, ptr %101, i32 0, i32 3
  %103 = load ptr, ptr %102, align 8, !tbaa !34
  %104 = getelementptr inbounds nuw %struct.AVCodecParameters, ptr %103, i32 0, i32 25
  %105 = load i32, ptr %104, align 8, !tbaa !45
  call void @avpriv_set_pts_info(ptr noundef %100, i32 noundef 64, i32 noundef 1, i32 noundef %105)
  %106 = load ptr, ptr %3, align 8, !tbaa !14
  %107 = getelementptr inbounds nuw %struct.AVFormatContext, ptr %106, i32 0, i32 4
  %108 = load ptr, ptr %107, align 8, !tbaa !17
  %109 = call i64 @avio_skip(ptr noundef %108, i64 noundef 3)
  store i32 0, ptr %12, align 4
  br label %110

110:                                              ; preds = %74, %73
  call void @llvm.lifetime.end.p0(i64 8, ptr %13) #6
  %111 = load i32, ptr %12, align 4
  switch i32 %111, label %167 [
    i32 0, label %112
  ]

112:                                              ; preds = %110
  br label %113

113:                                              ; preds = %112
  %114 = load i32, ptr %11, align 4, !tbaa !16
  %115 = add nsw i32 %114, 1
  store i32 %115, ptr %11, align 4, !tbaa !16
  br label %64, !llvm.loop !47

116:                                              ; preds = %64
  %117 = load ptr, ptr %3, align 8, !tbaa !14
  %118 = getelementptr inbounds nuw %struct.AVFormatContext, ptr %117, i32 0, i32 4
  %119 = load ptr, ptr %118, align 8, !tbaa !17
  %120 = load i32, ptr %5, align 4, !tbaa !16
  %121 = zext i32 %120 to i64
  %122 = call i64 @avio_seek(ptr noundef %119, i64 noundef %121, i32 noundef 0)
  store i32 0, ptr %11, align 4, !tbaa !16
  br label %123

123:                                              ; preds = %163, %116
  %124 = load i32, ptr %11, align 4, !tbaa !16
  %125 = load i32, ptr %4, align 4, !tbaa !16
  %126 = icmp ult i32 %124, %125
  br i1 %126, label %127, label %166

127:                                              ; preds = %123
  %128 = load ptr, ptr %3, align 8, !tbaa !14
  %129 = getelementptr inbounds nuw %struct.AVFormatContext, ptr %128, i32 0, i32 4
  %130 = load ptr, ptr %129, align 8, !tbaa !17
  %131 = call i32 @avio_rl32(ptr noundef %130)
  %132 = icmp ne i32 %131, 1347963201
  br i1 %132, label %133, label %134

133:                                              ; preds = %127
  store i32 -1094995529, ptr %2, align 4
  store i32 1, ptr %12, align 4
  br label %167

134:                                              ; preds = %127
  %135 = load ptr, ptr %3, align 8, !tbaa !14
  %136 = getelementptr inbounds nuw %struct.AVFormatContext, ptr %135, i32 0, i32 4
  %137 = load ptr, ptr %136, align 8, !tbaa !17
  %138 = call i32 @avio_rb32(ptr noundef %137)
  store i32 %138, ptr %10, align 4, !tbaa !16
  %139 = load i32, ptr %10, align 4, !tbaa !16
  %140 = icmp ule i32 %139, 8
  br i1 %140, label %141, label %142

141:                                              ; preds = %134
  store i32 -1094995529, ptr %2, align 4
  store i32 1, ptr %12, align 4
  br label %167

142:                                              ; preds = %134
  %143 = load ptr, ptr %3, align 8, !tbaa !14
  %144 = getelementptr inbounds nuw %struct.AVFormatContext, ptr %143, i32 0, i32 4
  %145 = load ptr, ptr %144, align 8, !tbaa !17
  %146 = call i64 @avio_skip(ptr noundef %145, i64 noundef 8)
  %147 = load ptr, ptr %3, align 8, !tbaa !14
  %148 = load ptr, ptr %3, align 8, !tbaa !14
  %149 = getelementptr inbounds nuw %struct.AVFormatContext, ptr %148, i32 0, i32 7
  %150 = load ptr, ptr %149, align 8, !tbaa !49
  %151 = load i32, ptr %11, align 4, !tbaa !16
  %152 = sext i32 %151 to i64
  %153 = getelementptr inbounds ptr, ptr %150, i64 %152
  %154 = load ptr, ptr %153, align 8, !tbaa !32
  %155 = getelementptr inbounds nuw %struct.AVStream, ptr %154, i32 0, i32 3
  %156 = load ptr, ptr %155, align 8, !tbaa !34
  %157 = load ptr, ptr %3, align 8, !tbaa !14
  %158 = getelementptr inbounds nuw %struct.AVFormatContext, ptr %157, i32 0, i32 4
  %159 = load ptr, ptr %158, align 8, !tbaa !17
  %160 = load i32, ptr %10, align 4, !tbaa !16
  %161 = sub i32 %160, 8
  %162 = call i32 @ff_get_extradata(ptr noundef %147, ptr noundef %156, ptr noundef %159, i32 noundef %161)
  br label %163

163:                                              ; preds = %142
  %164 = load i32, ptr %11, align 4, !tbaa !16
  %165 = add nsw i32 %164, 1
  store i32 %165, ptr %11, align 4, !tbaa !16
  br label %123, !llvm.loop !50

166:                                              ; preds = %123
  store i32 0, ptr %2, align 4
  store i32 1, ptr %12, align 4
  br label %167

167:                                              ; preds = %166, %141, %133, %110, %58, %44, %33
  call void @llvm.lifetime.end.p0(i64 4, ptr %11) #6
  call void @llvm.lifetime.end.p0(i64 4, ptr %10) #6
  call void @llvm.lifetime.end.p0(i64 4, ptr %9) #6
  call void @llvm.lifetime.end.p0(i64 4, ptr %8) #6
  call void @llvm.lifetime.end.p0(i64 4, ptr %7) #6
  call void @llvm.lifetime.end.p0(i64 4, ptr %6) #6
  call void @llvm.lifetime.end.p0(i64 4, ptr %5) #6
  call void @llvm.lifetime.end.p0(i64 4, ptr %4) #6
  %168 = load i32, ptr %2, align 4
  ret i32 %168
}