; Function Attrs: nounwind uwtable
define internal range(i32 -1094995529, 1) i32 @aix_read_header(ptr noundef %0) #1 {
  %2 = getelementptr inbounds nuw i8, ptr %0, i64 32
  %3 = load ptr, ptr %2, align 8, !tbaa !12
  %4 = tail call i64 @avio_skip(ptr noundef %3, i64 noundef 4) #3
  %5 = load ptr, ptr %2, align 8, !tbaa !12
  %6 = tail call i32 @avio_rb32(ptr noundef %5) #3
  %7 = add i32 %6, 8
  %8 = load ptr, ptr %2, align 8, !tbaa !12
  %9 = tail call i64 @avio_skip(ptr noundef %8, i64 noundef 16) #3
  %10 = load ptr, ptr %2, align 8, !tbaa !12
  %11 = tail call i32 @avio_rb16(ptr noundef %10) #3
  %12 = icmp eq i32 %11, 0
  br i1 %12, label %.critedge, label %13

13:                                               ; preds = %1
  %14 = shl i32 %11, 4
  %15 = add i32 %14, 48
  %.not = icmp ult i32 %15, %7
  br i1 %.not, label %16, label %.critedge

16:                                               ; preds = %13
  %17 = load ptr, ptr %2, align 8, !tbaa !12
  %18 = zext i32 %15 to i64
  %19 = tail call i64 @avio_seek(ptr noundef %17, i64 noundef %18, i32 noundef 0) #3
  %20 = load ptr, ptr %2, align 8, !tbaa !12
  %21 = tail call i32 @avio_r8(ptr noundef %20) #3
  %22 = icmp eq i32 %21, 0
  br i1 %22, label %.critedge, label %23

23:                                               ; preds = %16
  %24 = load ptr, ptr %2, align 8, !tbaa !12
  %25 = tail call i64 @avio_skip(ptr noundef %24, i64 noundef 7) #3
  br label %26

26:                                               ; preds = %23, %28
  %.04556 = phi i32 [ 0, %23 ], [ %44, %28 ]
  %27 = tail call ptr @avformat_new_stream(ptr noundef nonnull %0, ptr noundef null) #3
  %.not54.not = icmp eq ptr %27, null
  br i1 %.not54.not, label %.critedge, label %28

28:                                               ; preds = %26
  %29 = getelementptr inbounds nuw i8, ptr %27, i64 16
  %30 = load ptr, ptr %29, align 8, !tbaa !27
  store i32 1, ptr %30, align 8, !tbaa !34
  %31 = getelementptr inbounds nuw i8, ptr %30, i64 4
  store i32 69641, ptr %31, align 4, !tbaa !37
  %32 = load ptr, ptr %2, align 8, !tbaa !12
  %33 = tail call i32 @avio_rb32(ptr noundef %32) #3
  %34 = load ptr, ptr %29, align 8, !tbaa !27
  %35 = getelementptr inbounds nuw i8, ptr %34, i64 152
  store i32 %33, ptr %35, align 8, !tbaa !38
  %36 = load ptr, ptr %2, align 8, !tbaa !12
  %37 = tail call i32 @avio_r8(ptr noundef %36) #3
  %38 = load ptr, ptr %29, align 8, !tbaa !27
  %39 = getelementptr inbounds nuw i8, ptr %38, i64 132
  store i32 %37, ptr %39, align 4, !tbaa !39
  %40 = getelementptr inbounds nuw i8, ptr %38, i64 152
  %41 = load i32, ptr %40, align 8, !tbaa !38
  tail call void @avpriv_set_pts_info(ptr noundef nonnull %27, i32 noundef 64, i32 noundef 1, i32 noundef %41) #3
  %42 = load ptr, ptr %2, align 8, !tbaa !12
  %43 = tail call i64 @avio_skip(ptr noundef %42, i64 noundef 3) #3
  %44 = add nuw i32 %.04556, 1
  %exitcond.not = icmp eq i32 %44, %21
  br i1 %exitcond.not, label %45, label %26, !llvm.loop !40

45:                                               ; preds = %28
  %46 = load ptr, ptr %2, align 8, !tbaa !12
  %47 = zext i32 %7 to i64
  %48 = tail call i64 @avio_seek(ptr noundef %46, i64 noundef %47, i32 noundef 0) #3
  %49 = getelementptr inbounds nuw i8, ptr %0, i64 48
  %wide.trip.count = zext i32 %21 to i64
  br label %50

50:                                               ; preds = %45, %57
  %indvars.iv = phi i64 [ 0, %45 ], [ %indvars.iv.next, %57 ]
  %51 = load ptr, ptr %2, align 8, !tbaa !12
  %52 = tail call i32 @avio_rl32(ptr noundef %51) #3
  %.not53 = icmp eq i32 %52, 1347963201
  br i1 %.not53, label %53, label %.critedge

53:                                               ; preds = %50
  %54 = load ptr, ptr %2, align 8, !tbaa !12
  %55 = tail call i32 @avio_rb32(ptr noundef %54) #3
  %56 = icmp ult i32 %55, 9
  br i1 %56, label %.critedge, label %57

57:                                               ; preds = %53
  %58 = load ptr, ptr %2, align 8, !tbaa !12
  %59 = tail call i64 @avio_skip(ptr noundef %58, i64 noundef 8) #3
  %60 = load ptr, ptr %49, align 8, !tbaa !42
  %61 = getelementptr inbounds nuw ptr, ptr %60, i64 %indvars.iv
  %62 = load ptr, ptr %61, align 8, !tbaa !43
  %63 = getelementptr inbounds nuw i8, ptr %62, i64 16
  %64 = load ptr, ptr %63, align 8, !tbaa !27
  %65 = load ptr, ptr %2, align 8, !tbaa !12
  %66 = add i32 %55, -8
  %67 = tail call i32 @ff_get_extradata(ptr noundef nonnull %0, ptr noundef %64, ptr noundef %65, i32 noundef %66) #3
  %indvars.iv.next = add nuw nsw i64 %indvars.iv, 1
  %exitcond60.not = icmp eq i64 %indvars.iv.next, %wide.trip.count
  br i1 %exitcond60.not, label %.critedge, label %50, !llvm.loop !45

.critedge:                                        ; preds = %26, %57, %53, %50, %16, %13, %1
  %.0 = phi i32 [ -1094995529, %1 ], [ -1094995529, %13 ], [ -1094995529, %16 ], [ 0, %57 ], [ -1094995529, %53 ], [ -1094995529, %50 ], [ -12, %26 ]
  ret i32 %.0
}